; ModuleID = '27/1846.c'
source_filename = "27/1846.c"
target datalayout = "e-m:e-p270:32:32-p271:32:32-p272:64:64-i64:64-f80:128-n8:16:32:64-S128"
target triple = "x86_64-pc-linux-gnu"

@.str = private unnamed_addr constant [3 x i8] c"%d\00", align 1
@.str.1 = private unnamed_addr constant [10 x i8] c"%lf%lf%lf\00", align 1
@.str.2 = private unnamed_addr constant [17 x i8] c"x1=%.5f;x2=%.5f\0A\00", align 1
@.str.3 = private unnamed_addr constant [15 x i8] c"x1=x2=0.00000\0A\00", align 1
@.str.4 = private unnamed_addr constant [12 x i8] c"x1=x2=%.5f\0A\00", align 1
@.str.5 = private unnamed_addr constant [35 x i8] c"x1=0.00000+%.5fi;x2=0.00000-%.5fi\0A\00", align 1
@.str.6 = private unnamed_addr constant [29 x i8] c"x1=%.5f+%.5fi;x2=%.5f-%.5fi\0A\00", align 1

; Function Attrs: noinline nounwind uwtable
define dso_local i32 @main() #0 {
  %1 = alloca i32, align 4
  %2 = alloca i32, align 4
  %3 = alloca i32, align 4
  %4 = alloca double, align 8
  %5 = alloca double, align 8
  %6 = alloca double, align 8
  %7 = alloca double, align 8
  %8 = alloca double, align 8
  %9 = alloca double, align 8
  store i32 0, i32* %1, align 4
  %10 = call i32 (i8*, ...) @__isoc99_scanf(i8* getelementptr inbounds ([3 x i8], [3 x i8]* @.str, i64 0, i64 0), i32* %2)
  store i32 0, i32* %3, align 4
  br label %11

11:                                               ; preds = %91, %0
  %12 = load i32, i32* %3, align 4
  %13 = load i32, i32* %2, align 4
  %14 = icmp slt i32 %12, %13
  br i1 %14, label %15, label %94

15:                                               ; preds = %11
  %16 = call i32 (i8*, ...) @__isoc99_scanf(i8* getelementptr inbounds ([10 x i8], [10 x i8]* @.str.1, i64 0, i64 0), double* %4, double* %5, double* %6)
  %17 = load double, double* %5, align 8
  %18 = load double, double* %5, align 8
  %19 = fmul double %17, %18
  %20 = load double, double* %4, align 8
  %21 = fmul double 4.000000e+00, %20
  %22 = load double, double* %6, align 8
  %23 = fmul double %21, %22
  %24 = fsub double %19, %23
  store double %24, double* %9, align 8
  %25 = load double, double* %9, align 8
  %26 = fcmp oge double %25, 0.000000e+00
  br i1 %26, label %27, label %62

27:                                               ; preds = %15
  %28 = load double, double* %9, align 8
  %29 = call double @sqrt(double %28) #3
  %30 = load double, double* %4, align 8
  %31 = fmul double 2.000000e+00, %30
  %32 = fdiv double %29, %31
  store double %32, double* %8, align 8
  %33 = load double, double* %5, align 8
  %34 = fneg double %33
  %35 = load double, double* %4, align 8
  %36 = fmul double 2.000000e+00, %35
  %37 = fdiv double %34, %36
  store double %37, double* %7, align 8
  %38 = load double, double* %8, align 8
  %39 = fsub double %38, 0.000000e+00
  %40 = fcmp oge double %39, 1.000000e-05
  br i1 %40, label %41, label %49

41:                                               ; preds = %27
  %42 = load double, double* %7, align 8
  %43 = load double, double* %8, align 8
  %44 = fadd double %42, %43
  %45 = load double, double* %7, align 8
  %46 = load double, double* %8, align 8
  %47 = fsub double %45, %46
  %48 = call i32 (i8*, ...) @printf(i8* getelementptr inbounds ([17 x i8], [17 x i8]* @.str.2, i64 0, i64 0), double %44, double %47)
  br label %61

49:                                               ; preds = %27
  %50 = load double, double* %7, align 8
  %51 = fcmp olt double %50, 1.000000e-05
  br i1 %51, label %52, label %57

52:                                               ; preds = %49
  %53 = load double, double* %7, align 8
  %54 = fcmp ogt double %53, -1.000000e-05
  br i1 %54, label %55, label %57

55:                                               ; preds = %52
  %56 = call i32 (i8*, ...) @printf(i8* getelementptr inbounds ([15 x i8], [15 x i8]* @.str.3, i64 0, i64 0))
  br label %60

57:                                               ; preds = %52, %49
  %58 = load double, double* %7, align 8
  %59 = call i32 (i8*, ...) @printf(i8* getelementptr inbounds ([12 x i8], [12 x i8]* @.str.4, i64 0, i64 0), double %58)
  br label %60

60:                                               ; preds = %57, %55
  br label %61

61:                                               ; preds = %60, %41
  br label %90

62:                                               ; preds = %15
  %63 = load double, double* %9, align 8
  %64 = fneg double %63
  %65 = call double @sqrt(double %64) #3
  %66 = load double, double* %4, align 8
  %67 = fmul double 2.000000e+00, %66
  %68 = fdiv double %65, %67
  store double %68, double* %8, align 8
  %69 = load double, double* %5, align 8
  %70 = fneg double %69
  %71 = load double, double* %4, align 8
  %72 = fmul double 2.000000e+00, %71
  %73 = fdiv double %70, %72
  store double %73, double* %7, align 8
  %74 = load double, double* %7, align 8
  %75 = fcmp olt double %74, 1.000000e-05
  br i1 %75, label %76, label %83

76:                                               ; preds = %62
  %77 = load double, double* %7, align 8
  %78 = fcmp ogt double %77, -1.000000e-05
  br i1 %78, label %79, label %83

79:                                               ; preds = %76
  %80 = load double, double* %8, align 8
  %81 = load double, double* %8, align 8
  %82 = call i32 (i8*, ...) @printf(i8* getelementptr inbounds ([35 x i8], [35 x i8]* @.str.5, i64 0, i64 0), double %80, double %81)
  br label %89

83:                                               ; preds = %76, %62
  %84 = load double, double* %7, align 8
  %85 = load double, double* %8, align 8
  %86 = load double, double* %7, align 8
  %87 = load double, double* %8, align 8
  %88 = call i32 (i8*, ...) @printf(i8* getelementptr inbounds ([29 x i8], [29 x i8]* @.str.6, i64 0, i64 0), double %84, double %85, double %86, double %87)
  br label %89

89:                                               ; preds = %83, %79
  br label %90

90:                                               ; preds = %89, %61
  br label %91

91:                                               ; preds = %90
  %92 = load i32, i32* %3, align 4
  %93 = add nsw i32 %92, 1
  store i32 %93, i32* %3, align 4
  br label %11

94:                                               ; preds = %11
  %95 = load i32, i32* %1, align 4
  ret i32 %95
}

declare dso_local i32 @__isoc99_scanf(i8*, ...) #1

; Function Attrs: nounwind
declare dso_local double @sqrt(double) #2

declare dso_local i32 @printf(i8*, ...) #1


!llvm.module.flags = !{!0}
!llvm.ident = !{!1}

!0 = !{i32 1, !"wchar_size", i32 4}
!1 = !{!"clang version 10.0.0-4ubuntu1 "}
