; ModuleID = 'source-C-CXX/26/1846.c'
source_filename = "source-C-CXX/26/1846.c"
target datalayout = "e-m:e-p270:32:32-p271:32:32-p272:64:64-i64:64-f80:128-n8:16:32:64-S128"
target triple = "x86_64-pc-linux-gnu"

@.str = private unnamed_addr constant [3 x i8] c"%d\00", align 1
@.str.1 = private unnamed_addr constant [10 x i8] c"%lf%lf%lf\00", align 1
@.str.2 = private unnamed_addr constant [17 x i8] c"x1=%.5f;x2=%.5f\0A\00", align 1
@.str.4 = private unnamed_addr constant [12 x i8] c"x1=x2=%.5f\0A\00", align 1
@.str.5 = private unnamed_addr constant [35 x i8] c"x1=0.00000+%.5fi;x2=0.00000-%.5fi\0A\00", align 1
@.str.6 = private unnamed_addr constant [29 x i8] c"x1=%.5f+%.5fi;x2=%.5f-%.5fi\0A\00", align 1
@str = private unnamed_addr constant [14 x i8] c"x1=x2=0.00000\00", align 1

; Function Attrs: nofree nounwind sspstrong uwtable
define dso_local i32 @main() local_unnamed_addr #0 {
  %1 = alloca i32, align 4
  %2 = alloca double, align 8
  %3 = alloca double, align 8
  %4 = alloca double, align 8
  %5 = bitcast i32* %1 to i8*
  call void @llvm.lifetime.start.p0i8(i64 4, i8* nonnull %5) #5
  %6 = bitcast double* %2 to i8*
  call void @llvm.lifetime.start.p0i8(i64 8, i8* nonnull %6) #5
  %7 = bitcast double* %3 to i8*
  call void @llvm.lifetime.start.p0i8(i64 8, i8* nonnull %7) #5
  %8 = bitcast double* %4 to i8*
  call void @llvm.lifetime.start.p0i8(i64 8, i8* nonnull %8) #5
  %9 = call i32 (i8*, ...) @__isoc99_scanf(i8* getelementptr inbounds ([3 x i8], [3 x i8]* @.str, i64 0, i64 0), i32* nonnull %1)
  %10 = load i32, i32* %1, align 4, !tbaa !5
  %11 = icmp sgt i32 %10, 0
  br i1 %11, label %12, label %64

12:                                               ; preds = %0, %60
  %13 = phi i32 [ %61, %60 ], [ 0, %0 ]
  %14 = call i32 (i8*, ...) @__isoc99_scanf(i8* getelementptr inbounds ([10 x i8], [10 x i8]* @.str.1, i64 0, i64 0), double* nonnull %2, double* nonnull %3, double* nonnull %4)
  %15 = load double, double* %3, align 8, !tbaa !9
  %16 = fmul double %15, %15
  %17 = load double, double* %2, align 8, !tbaa !9
  %18 = fmul double %17, 4.000000e+00
  %19 = load double, double* %4, align 8, !tbaa !9
  %20 = fmul double %18, %19
  %21 = fsub double %16, %20
  %22 = fcmp ult double %21, 0.000000e+00
  br i1 %22, label %44, label %23

23:                                               ; preds = %12
  %24 = call double @sqrt(double %21) #5
  %25 = load double, double* %2, align 8, !tbaa !9
  %26 = fmul double %25, 2.000000e+00
  %27 = fdiv double %24, %26
  %28 = load double, double* %3, align 8, !tbaa !9
  %29 = fneg double %28
  %30 = fdiv double %29, %26
  %31 = fcmp ult double %27, 1.000000e-05
  br i1 %31, label %36, label %32

32:                                               ; preds = %23
  %33 = fadd double %30, %27
  %34 = fsub double %30, %27
  %35 = call i32 (i8*, ...) @printf(i8* nonnull dereferenceable(1) getelementptr inbounds ([17 x i8], [17 x i8]* @.str.2, i64 0, i64 0), double %33, double %34)
  br label %60

36:                                               ; preds = %23
  %37 = fcmp olt double %30, 1.000000e-05
  %38 = fcmp ogt double %30, -1.000000e-05
  %39 = and i1 %37, %38
  br i1 %39, label %40, label %42

40:                                               ; preds = %36
  %41 = call i32 @puts(i8* nonnull dereferenceable(1) getelementptr inbounds ([14 x i8], [14 x i8]* @str, i64 0, i64 0))
  br label %60

42:                                               ; preds = %36
  %43 = call i32 (i8*, ...) @printf(i8* nonnull dereferenceable(1) getelementptr inbounds ([12 x i8], [12 x i8]* @.str.4, i64 0, i64 0), double %30)
  br label %60

44:                                               ; preds = %12
  %45 = fneg double %21
  %46 = call double @sqrt(double %45) #5
  %47 = load double, double* %2, align 8, !tbaa !9
  %48 = fmul double %47, 2.000000e+00
  %49 = fdiv double %46, %48
  %50 = load double, double* %3, align 8, !tbaa !9
  %51 = fneg double %50
  %52 = fdiv double %51, %48
  %53 = fcmp olt double %52, 1.000000e-05
  %54 = fcmp ogt double %52, -1.000000e-05
  %55 = and i1 %53, %54
  br i1 %55, label %56, label %58

56:                                               ; preds = %44
  %57 = call i32 (i8*, ...) @printf(i8* nonnull dereferenceable(1) getelementptr inbounds ([35 x i8], [35 x i8]* @.str.5, i64 0, i64 0), double %49, double %49)
  br label %60

58:                                               ; preds = %44
  %59 = call i32 (i8*, ...) @printf(i8* nonnull dereferenceable(1) getelementptr inbounds ([29 x i8], [29 x i8]* @.str.6, i64 0, i64 0), double %52, double %49, double %52, double %49)
  br label %60

60:                                               ; preds = %40, %42, %32, %58, %56
  %61 = add nuw nsw i32 %13, 1
  %62 = load i32, i32* %1, align 4, !tbaa !5
  %63 = icmp slt i32 %61, %62
  br i1 %63, label %12, label %64, !llvm.loop !11

64:                                               ; preds = %60, %0
  call void @llvm.lifetime.end.p0i8(i64 8, i8* nonnull %8) #5
  call void @llvm.lifetime.end.p0i8(i64 8, i8* nonnull %7) #5
  call void @llvm.lifetime.end.p0i8(i64 8, i8* nonnull %6) #5
  call void @llvm.lifetime.end.p0i8(i64 4, i8* nonnull %5) #5
  ret i32 0
}

; Function Attrs: argmemonly mustprogress nofree nosync nounwind willreturn
declare void @llvm.lifetime.start.p0i8(i64 immarg, i8* nocapture) #1

; Function Attrs: nofree nounwind
declare noundef i32 @__isoc99_scanf(i8* nocapture noundef readonly, ...) local_unnamed_addr #2

; Function Attrs: mustprogress nofree nounwind willreturn
declare double @sqrt(double) local_unnamed_addr #3

; Function Attrs: nofree nounwind
declare noundef i32 @printf(i8* nocapture noundef readonly, ...) local_unnamed_addr #2

; Function Attrs: argmemonly mustprogress nofree nosync nounwind willreturn
declare void @llvm.lifetime.end.p0i8(i64 immarg, i8* nocapture) #1

; Function Attrs: nofree nounwind
declare noundef i32 @puts(i8* nocapture noundef readonly) local_unnamed_addr #4


!llvm.module.flags = !{!0, !1, !2, !3}
!llvm.ident = !{!4}

!0 = !{i32 1, !"wchar_size", i32 4}
!1 = !{i32 7, !"PIC Level", i32 2}
!2 = !{i32 7, !"PIE Level", i32 2}
!3 = !{i32 7, !"uwtable", i32 1}
!4 = !{!"clang version 13.0.0"}
!5 = !{!6, !6, i64 0}
!6 = !{!"int", !7, i64 0}
!7 = !{!"omnipotent char", !8, i64 0}
!8 = !{!"Simple C/C++ TBAA"}
!9 = !{!10, !10, i64 0}
!10 = !{!"double", !7, i64 0}
!11 = distinct !{!11, !12}
!12 = !{!"llvm.loop.mustprogress"}
